target datalayout = "e-m:e-p270:32:32-p271:32:32-p272:64:64-i64:64-i128:128-f80:128-n8:16:32:64-S128"
target triple = "x86_64-pc-linux-gnu"

%struct.STBIR_RESIZE = type { ptr, ptr, i32, i32, double, double, double, double, ptr, ptr, i32, i32, i32, i32, i32, i32, ptr, i32, i32, i32, i32, i32, i32, i32, i32, i32, i32, i32, i32, i32, i32, ptr, ptr, ptr, ptr, ptr }

; Function Attrs: nounwind uwtable
define i32 @stbir_set_filter_callbacks(ptr noundef %0, ptr noundef %1, ptr noundef %2, ptr noundef %3, ptr noundef %4) #3 {
  %6 = alloca ptr, align 8
  %7 = alloca ptr, align 8
  %8 = alloca ptr, align 8
  %9 = alloca ptr, align 8
  %10 = alloca ptr, align 8
  store ptr %0, ptr %6, align 8, !tbaa !1068
  store ptr %1, ptr %7, align 8, !tbaa !3
  store ptr %2, ptr %8, align 8, !tbaa !3
  store ptr %3, ptr %9, align 8, !tbaa !3
  store ptr %4, ptr %10, align 8, !tbaa !3
  %11 = load ptr, ptr %7, align 8, !tbaa !3
  %12 = load ptr, ptr %6, align 8, !tbaa !1068
  %13 = getelementptr inbounds nuw %struct.STBIR_RESIZE, ptr %12, i32 0, i32 31
  store ptr %11, ptr %13, align 8, !tbaa !1085
  %14 = load ptr, ptr %8, align 8, !tbaa !3
  %15 = load ptr, ptr %6, align 8, !tbaa !1068
  %16 = getelementptr inbounds nuw %struct.STBIR_RESIZE, ptr %15, i32 0, i32 32
  store ptr %14, ptr %16, align 8, !tbaa !1086
  %17 = load ptr, ptr %9, align 8, !tbaa !3
  %18 = load ptr, ptr %6, align 8, !tbaa !1068
  %19 = getelementptr inbounds nuw %struct.STBIR_RESIZE, ptr %18, i32 0, i32 33
  store ptr %17, ptr %19, align 8, !tbaa !1088
  %20 = load ptr, ptr %10, align 8, !tbaa !3
  %21 = load ptr, ptr %6, align 8, !tbaa !1068
  %22 = getelementptr inbounds nuw %struct.STBIR_RESIZE, ptr %21, i32 0, i32 34
  store ptr %20, ptr %22, align 8, !tbaa !1089
  %23 = load ptr, ptr %6, align 8, !tbaa !1068
  %24 = getelementptr inbounds nuw %struct.STBIR_RESIZE, ptr %23, i32 0, i32 21
  store i32 1, ptr %24, align 8, !tbaa !1104
  ret i32 1
}