; Function Attrs: mustprogress nofree norecurse nosync nounwind willreturn memory(argmem: write) uwtable
define noundef i32 @stbir_set_filter_callbacks(ptr noundef writeonly captures(none) initializes((120, 124), (160, 192)) %0, ptr noundef %1, ptr noundef %2, ptr noundef %3, ptr noundef %4) local_unnamed_addr #16 {
  %6 = getelementptr inbounds nuw i8, ptr %0, i64 160
  store ptr %1, ptr %6, align 8, !tbaa !1010
  %7 = getelementptr inbounds nuw i8, ptr %0, i64 168
  store ptr %2, ptr %7, align 8, !tbaa !1011
  %8 = getelementptr inbounds nuw i8, ptr %0, i64 176
  store ptr %3, ptr %8, align 8, !tbaa !1012
  %9 = getelementptr inbounds nuw i8, ptr %0, i64 184
  store ptr %4, ptr %9, align 8, !tbaa !1013
  %10 = getelementptr inbounds nuw i8, ptr %0, i64 120
  store i32 1, ptr %10, align 8, !tbaa !1001
  ret i32 1
}